riscv32-unknown-elf-objdump main.elf -d main.dump

main.elf:     file format elf32-littleriscv


Disassembly of section .text:

80000000 <_start>:
80000000:	00004137          	lui	sp,0x4
80000004:	004000ef          	jal	80000008 <main>

80000008 <main>:
80000008:	fe010113          	addi	sp,sp,-32 # 3fe0 <_start-0x7fffc020>
8000000c:	00112e23          	sw	ra,28(sp)
80000010:	00812c23          	sw	s0,24(sp)
80000014:	02010413          	addi	s0,sp,32
80000018:	00000513          	li	a0,0
8000001c:	01c000ef          	jal	80000038 <spi_toggle_test>
80000020:	800407b7          	lui	a5,0x80040
80000024:	fef42623          	sw	a5,-20(s0)
80000028:	fec42783          	lw	a5,-20(s0)
8000002c:	00400713          	li	a4,4
80000030:	00e78023          	sb	a4,0(a5) # 80040000 <uart_toggle_test+0x3fbd8>
80000034:	0000006f          	j	80000034 <main+0x2c>

80000038 <spi_toggle_test>:
80000038:	fd010113          	addi	sp,sp,-48
8000003c:	02112623          	sw	ra,44(sp)
80000040:	02812423          	sw	s0,40(sp)
80000044:	03010413          	addi	s0,sp,48
80000048:	fca42e23          	sw	a0,-36(s0)
8000004c:	fdc42783          	lw	a5,-36(s0)
80000050:	06079263          	bnez	a5,800000b4 <spi_toggle_test+0x7c>
80000054:	200007b7          	lui	a5,0x20000
80000058:	20078793          	addi	a5,a5,512 # 20000200 <_start-0x5ffffe00>
8000005c:	01000713          	li	a4,16
80000060:	00e78023          	sb	a4,0(a5)
80000064:	200007b7          	lui	a5,0x20000
80000068:	20078793          	addi	a5,a5,512 # 20000200 <_start-0x5ffffe00>
8000006c:	0007c783          	lbu	a5,0(a5)
80000070:	fef407a3          	sb	a5,-17(s0)
80000074:	200007b7          	lui	a5,0x20000
80000078:	20078793          	addi	a5,a5,512 # 20000200 <_start-0x5ffffe00>
8000007c:	fff00713          	li	a4,-1
80000080:	00e78023          	sb	a4,0(a5)
80000084:	200007b7          	lui	a5,0x20000
80000088:	20078793          	addi	a5,a5,512 # 20000200 <_start-0x5ffffe00>
8000008c:	0007c783          	lbu	a5,0(a5)
80000090:	fef407a3          	sb	a5,-17(s0)
80000094:	200007b7          	lui	a5,0x20000
80000098:	20078793          	addi	a5,a5,512 # 20000200 <_start-0x5ffffe00>
8000009c:	01000713          	li	a4,16
800000a0:	00e78023          	sb	a4,0(a5)
800000a4:	200007b7          	lui	a5,0x20000
800000a8:	20078793          	addi	a5,a5,512 # 20000200 <_start-0x5ffffe00>
800000ac:	0007c783          	lbu	a5,0(a5)
800000b0:	fef407a3          	sb	a5,-17(s0)
800000b4:	00000013          	nop
800000b8:	02c12083          	lw	ra,44(sp)
800000bc:	02812403          	lw	s0,40(sp)
800000c0:	03010113          	addi	sp,sp,48
800000c4:	00008067          	ret

800000c8 <spi_write_test>:
800000c8:	fd010113          	addi	sp,sp,-48
800000cc:	02112623          	sw	ra,44(sp)
800000d0:	02812423          	sw	s0,40(sp)
800000d4:	03010413          	addi	s0,sp,48
800000d8:	fca42e23          	sw	a0,-36(s0)
800000dc:	fdc42783          	lw	a5,-36(s0)
800000e0:	06079663          	bnez	a5,8000014c <spi_write_test+0x84>
800000e4:	200007b7          	lui	a5,0x20000
800000e8:	10c78793          	addi	a5,a5,268 # 2000010c <_start-0x5ffffef4>
800000ec:	fef42623          	sw	a5,-20(s0)
800000f0:	fec42783          	lw	a5,-20(s0)
800000f4:	fff00713          	li	a4,-1
800000f8:	00e7a023          	sw	a4,0(a5)
800000fc:	200007b7          	lui	a5,0x20000
80000100:	20078793          	addi	a5,a5,512 # 20000200 <_start-0x5ffffe00>
80000104:	05000713          	li	a4,80
80000108:	00e78023          	sb	a4,0(a5)
8000010c:	200007b7          	lui	a5,0x20000
80000110:	20078793          	addi	a5,a5,512 # 20000200 <_start-0x5ffffe00>
80000114:	0007c783          	lbu	a5,0(a5)
80000118:	fef405a3          	sb	a5,-21(s0)
8000011c:	200007b7          	lui	a5,0x20000
80000120:	20878793          	addi	a5,a5,520 # 20000208 <_start-0x5ffffdf8>
80000124:	00100713          	li	a4,1
80000128:	00e78023          	sb	a4,0(a5)
8000012c:	200007b7          	lui	a5,0x20000
80000130:	20878793          	addi	a5,a5,520 # 20000208 <_start-0x5ffffdf8>
80000134:	00200713          	li	a4,2
80000138:	00e78023          	sb	a4,0(a5)
8000013c:	200007b7          	lui	a5,0x20000
80000140:	20878793          	addi	a5,a5,520 # 20000208 <_start-0x5ffffdf8>
80000144:	00300713          	li	a4,3
80000148:	00e78023          	sb	a4,0(a5)
8000014c:	00000013          	nop
80000150:	02c12083          	lw	ra,44(sp)
80000154:	02812403          	lw	s0,40(sp)
80000158:	03010113          	addi	sp,sp,48
8000015c:	00008067          	ret

80000160 <spi_read_test>:
80000160:	fd010113          	addi	sp,sp,-48
80000164:	02112623          	sw	ra,44(sp)
80000168:	02812423          	sw	s0,40(sp)
8000016c:	03010413          	addi	s0,sp,48
80000170:	fca42e23          	sw	a0,-36(s0)
80000174:	fdc42783          	lw	a5,-36(s0)
80000178:	0c079a63          	bnez	a5,8000024c <spi_read_test+0xec>
8000017c:	200007b7          	lui	a5,0x20000
80000180:	10c78793          	addi	a5,a5,268 # 2000010c <_start-0x5ffffef4>
80000184:	fef42623          	sw	a5,-20(s0)
80000188:	fec42783          	lw	a5,-20(s0)
8000018c:	fff00713          	li	a4,-1
80000190:	00e7a023          	sw	a4,0(a5)
80000194:	200007b7          	lui	a5,0x20000
80000198:	20078793          	addi	a5,a5,512 # 20000200 <_start-0x5ffffe00>
8000019c:	05000713          	li	a4,80
800001a0:	00e78023          	sb	a4,0(a5)
800001a4:	200007b7          	lui	a5,0x20000
800001a8:	20078793          	addi	a5,a5,512 # 20000200 <_start-0x5ffffe00>
800001ac:	0007c783          	lbu	a5,0(a5)
800001b0:	fef405a3          	sb	a5,-21(s0)
800001b4:	200007b7          	lui	a5,0x20000
800001b8:	20878793          	addi	a5,a5,520 # 20000208 <_start-0x5ffffdf8>
800001bc:	00100713          	li	a4,1
800001c0:	00e78023          	sb	a4,0(a5)
800001c4:	200007b7          	lui	a5,0x20000
800001c8:	20878793          	addi	a5,a5,520 # 20000208 <_start-0x5ffffdf8>
800001cc:	00200713          	li	a4,2
800001d0:	00e78023          	sb	a4,0(a5)
800001d4:	200007b7          	lui	a5,0x20000
800001d8:	20878793          	addi	a5,a5,520 # 20000208 <_start-0x5ffffdf8>
800001dc:	00300713          	li	a4,3
800001e0:	00e78023          	sb	a4,0(a5)
800001e4:	200007b7          	lui	a5,0x20000
800001e8:	20878793          	addi	a5,a5,520 # 20000208 <_start-0x5ffffdf8>
800001ec:	00400713          	li	a4,4
800001f0:	00e78023          	sb	a4,0(a5)
800001f4:	00000013          	nop
800001f8:	200007b7          	lui	a5,0x20000
800001fc:	20478793          	addi	a5,a5,516 # 20000204 <_start-0x5ffffdfc>
80000200:	0007c783          	lbu	a5,0(a5)
80000204:	0027f793          	andi	a5,a5,2
80000208:	fe0788e3          	beqz	a5,800001f8 <spi_read_test+0x98>
8000020c:	200007b7          	lui	a5,0x20000
80000210:	20878793          	addi	a5,a5,520 # 20000208 <_start-0x5ffffdf8>
80000214:	0007c783          	lbu	a5,0(a5)
80000218:	fef405a3          	sb	a5,-21(s0)
8000021c:	200007b7          	lui	a5,0x20000
80000220:	20878793          	addi	a5,a5,520 # 20000208 <_start-0x5ffffdf8>
80000224:	0007c783          	lbu	a5,0(a5)
80000228:	fef405a3          	sb	a5,-21(s0)
8000022c:	200007b7          	lui	a5,0x20000
80000230:	20878793          	addi	a5,a5,520 # 20000208 <_start-0x5ffffdf8>
80000234:	0007c783          	lbu	a5,0(a5)
80000238:	fef405a3          	sb	a5,-21(s0)
8000023c:	200007b7          	lui	a5,0x20000
80000240:	20878793          	addi	a5,a5,520 # 20000208 <_start-0x5ffffdf8>
80000244:	0007c783          	lbu	a5,0(a5)
80000248:	fef405a3          	sb	a5,-21(s0)
8000024c:	00000013          	nop
80000250:	02c12083          	lw	ra,44(sp)
80000254:	02812403          	lw	s0,40(sp)
80000258:	03010113          	addi	sp,sp,48
8000025c:	00008067          	ret

80000260 <uart_tx_test>:
80000260:	ff010113          	addi	sp,sp,-16
80000264:	00112623          	sw	ra,12(sp)
80000268:	00812423          	sw	s0,8(sp)
8000026c:	01010413          	addi	s0,sp,16
80000270:	200007b7          	lui	a5,0x20000
80000274:	00c78793          	addi	a5,a5,12 # 2000000c <_start-0x5ffffff4>
80000278:	00300713          	li	a4,3
8000027c:	00e78023          	sb	a4,0(a5)
80000280:	200007b7          	lui	a5,0x20000
80000284:	05500713          	li	a4,85
80000288:	00e78023          	sb	a4,0(a5) # 20000000 <_start-0x60000000>
8000028c:	00000013          	nop
80000290:	00c12083          	lw	ra,12(sp)
80000294:	00812403          	lw	s0,8(sp)
80000298:	01010113          	addi	sp,sp,16
8000029c:	00008067          	ret

800002a0 <uart_rx_test>:
800002a0:	fe010113          	addi	sp,sp,-32
800002a4:	00112e23          	sw	ra,28(sp)
800002a8:	00812c23          	sw	s0,24(sp)
800002ac:	02010413          	addi	s0,sp,32
800002b0:	200007b7          	lui	a5,0x20000
800002b4:	00c78793          	addi	a5,a5,12 # 2000000c <_start-0x5ffffff4>
800002b8:	00300713          	li	a4,3
800002bc:	00e78023          	sb	a4,0(a5)
800002c0:	00000013          	nop
800002c4:	200007b7          	lui	a5,0x20000
800002c8:	01478793          	addi	a5,a5,20 # 20000014 <_start-0x5fffffec>
800002cc:	0007c783          	lbu	a5,0(a5)
800002d0:	0017f793          	andi	a5,a5,1
800002d4:	fe0788e3          	beqz	a5,800002c4 <uart_rx_test+0x24>
800002d8:	200007b7          	lui	a5,0x20000
800002dc:	0007c783          	lbu	a5,0(a5) # 20000000 <_start-0x60000000>
800002e0:	fef407a3          	sb	a5,-17(s0)
800002e4:	00000013          	nop
800002e8:	01c12083          	lw	ra,28(sp)
800002ec:	01812403          	lw	s0,24(sp)
800002f0:	02010113          	addi	sp,sp,32
800002f4:	00008067          	ret

800002f8 <uart_baud_rate_test>:
800002f8:	fe010113          	addi	sp,sp,-32
800002fc:	00112e23          	sw	ra,28(sp)
80000300:	00812c23          	sw	s0,24(sp)
80000304:	02010413          	addi	s0,sp,32
80000308:	fea42623          	sw	a0,-20(s0)
8000030c:	fec42503          	lw	a0,-20(s0)
80000310:	020000ef          	jal	80000330 <write_baud_rate>
80000314:	0b4000ef          	jal	800003c8 <read_baud_rate>
80000318:	00000013          	nop
8000031c:	00000013          	nop
80000320:	01c12083          	lw	ra,28(sp)
80000324:	01812403          	lw	s0,24(sp)
80000328:	02010113          	addi	sp,sp,32
8000032c:	00008067          	ret

80000330 <write_baud_rate>:
80000330:	fd010113          	addi	sp,sp,-48
80000334:	02112623          	sw	ra,44(sp)
80000338:	02812423          	sw	s0,40(sp)
8000033c:	03010413          	addi	s0,sp,48
80000340:	fca42e23          	sw	a0,-36(s0)
80000344:	200007b7          	lui	a5,0x20000
80000348:	00c78793          	addi	a5,a5,12 # 2000000c <_start-0x5ffffff4>
8000034c:	f8300713          	li	a4,-125
80000350:	00e78023          	sb	a4,0(a5)
80000354:	fdc42783          	lw	a5,-36(s0)
80000358:	00479793          	slli	a5,a5,0x4
8000035c:	05f5e737          	lui	a4,0x5f5e
80000360:	10070713          	addi	a4,a4,256 # 5f5e100 <_start-0x7a0a1f00>
80000364:	02f757b3          	divu	a5,a4,a5
80000368:	fef41723          	sh	a5,-18(s0)
8000036c:	fee45783          	lhu	a5,-18(s0)
80000370:	0087d793          	srli	a5,a5,0x8
80000374:	01079793          	slli	a5,a5,0x10
80000378:	0107d793          	srli	a5,a5,0x10
8000037c:	fef406a3          	sb	a5,-19(s0)
80000380:	fee45783          	lhu	a5,-18(s0)
80000384:	fef40623          	sb	a5,-20(s0)
80000388:	200007b7          	lui	a5,0x20000
8000038c:	00478793          	addi	a5,a5,4 # 20000004 <_start-0x5ffffffc>
80000390:	fed44703          	lbu	a4,-19(s0)
80000394:	00e78023          	sb	a4,0(a5)
80000398:	200007b7          	lui	a5,0x20000
8000039c:	fec44703          	lbu	a4,-20(s0)
800003a0:	00e78023          	sb	a4,0(a5) # 20000000 <_start-0x60000000>
800003a4:	200007b7          	lui	a5,0x20000
800003a8:	00c78793          	addi	a5,a5,12 # 2000000c <_start-0x5ffffff4>
800003ac:	00300713          	li	a4,3
800003b0:	00e78023          	sb	a4,0(a5)
800003b4:	00000013          	nop
800003b8:	02c12083          	lw	ra,44(sp)
800003bc:	02812403          	lw	s0,40(sp)
800003c0:	03010113          	addi	sp,sp,48
800003c4:	00008067          	ret

800003c8 <read_baud_rate>:
800003c8:	fe010113          	addi	sp,sp,-32
800003cc:	00112e23          	sw	ra,28(sp)
800003d0:	00812c23          	sw	s0,24(sp)
800003d4:	02010413          	addi	s0,sp,32
800003d8:	200007b7          	lui	a5,0x20000
800003dc:	00c78793          	addi	a5,a5,12 # 2000000c <_start-0x5ffffff4>
800003e0:	f8300713          	li	a4,-125
800003e4:	00e78023          	sb	a4,0(a5)
800003e8:	200007b7          	lui	a5,0x20000
800003ec:	00478793          	addi	a5,a5,4 # 20000004 <_start-0x5ffffffc>
800003f0:	0007c783          	lbu	a5,0(a5)
800003f4:	fef407a3          	sb	a5,-17(s0)
800003f8:	200007b7          	lui	a5,0x20000
800003fc:	0007c783          	lbu	a5,0(a5) # 20000000 <_start-0x60000000>
80000400:	fef40723          	sb	a5,-18(s0)
80000404:	200007b7          	lui	a5,0x20000
80000408:	00c78793          	addi	a5,a5,12 # 2000000c <_start-0x5ffffff4>
8000040c:	00300713          	li	a4,3
80000410:	00e78023          	sb	a4,0(a5)
80000414:	00000013          	nop
80000418:	01c12083          	lw	ra,28(sp)
8000041c:	01812403          	lw	s0,24(sp)
80000420:	02010113          	addi	sp,sp,32
80000424:	00008067          	ret

80000428 <uart_toggle_test>:
80000428:	fe010113          	addi	sp,sp,-32
8000042c:	00112e23          	sw	ra,28(sp)
80000430:	00812c23          	sw	s0,24(sp)
80000434:	02010413          	addi	s0,sp,32
80000438:	200007b7          	lui	a5,0x20000
8000043c:	00c78793          	addi	a5,a5,12 # 2000000c <_start-0x5ffffff4>
80000440:	00078023          	sb	zero,0(a5)
80000444:	200007b7          	lui	a5,0x20000
80000448:	00c78793          	addi	a5,a5,12 # 2000000c <_start-0x5ffffff4>
8000044c:	0007c783          	lbu	a5,0(a5)
80000450:	fef407a3          	sb	a5,-17(s0)
80000454:	200007b7          	lui	a5,0x20000
80000458:	00c78793          	addi	a5,a5,12 # 2000000c <_start-0x5ffffff4>
8000045c:	fff00713          	li	a4,-1
80000460:	00e78023          	sb	a4,0(a5)
80000464:	200007b7          	lui	a5,0x20000
80000468:	00c78793          	addi	a5,a5,12 # 2000000c <_start-0x5ffffff4>
8000046c:	0007c783          	lbu	a5,0(a5)
80000470:	fef407a3          	sb	a5,-17(s0)
80000474:	200007b7          	lui	a5,0x20000
80000478:	00c78793          	addi	a5,a5,12 # 2000000c <_start-0x5ffffff4>
8000047c:	00078023          	sb	zero,0(a5)
80000480:	200007b7          	lui	a5,0x20000
80000484:	00c78793          	addi	a5,a5,12 # 2000000c <_start-0x5ffffff4>
80000488:	0007c783          	lbu	a5,0(a5)
8000048c:	fef407a3          	sb	a5,-17(s0)
80000490:	00000013          	nop
80000494:	01c12083          	lw	ra,28(sp)
80000498:	01812403          	lw	s0,24(sp)
8000049c:	02010113          	addi	sp,sp,32
800004a0:	00008067          	ret
